target datalayout = "e-m:e-p270:32:32-p271:32:32-p272:64:64-i64:64-i128:128-f80:128-n8:16:32:64-S128"
target triple = "x86_64-unknown-linux-gnu"

%"class.icu_75::numparse::impl::ParsedNumber" = type { %"class.icu_75::number::impl::DecimalQuantity", i32, i32, %"class.icu_75::UnicodeString", %"class.icu_75::UnicodeString", [4 x i16] }
%"class.icu_75::number::impl::DecimalQuantity" = type <{ %"class.icu_75::IFixedDecimal", i8, [3 x i8], i32, i32, i8, i8, [2 x i8], double, i32, i32, i32, i32, %union.anon, i8, i8, [6 x i8] }>
%"class.icu_75::IFixedDecimal" = type { ptr }
%union.anon = type { %struct.anon }
%struct.anon = type { ptr, i32 }
%"class.icu_75::UnicodeString" = type { %"class.icu_75::Replaceable", %"union.icu_75::UnicodeString::StackBufferOrFields" }
%"class.icu_75::Replaceable" = type { %"class.icu_75::UObject" }
%"class.icu_75::UObject" = type { ptr }
%"union.icu_75::UnicodeString::StackBufferOrFields" = type { %struct.anon.1, [32 x i8] }
%struct.anon.1 = type { i16, i32, i32, ptr }

; Function Attrs: mustprogress uwtable
define noundef double @_ZNK6icu_758numparse4impl12ParsedNumber9getDoubleER10UErrorCode(ptr noundef nonnull align 8 dereferenceable(216) %this, ptr noundef nonnull align 4 dereferenceable(4) %status) #0 align 2 {
entry:
  %retval = alloca double, align 8
  %this.addr = alloca ptr, align 8
  %status.addr = alloca ptr, align 8
  %sawNaN = alloca i8, align 1
  %sawInfinity = alloca i8, align 1
  store ptr %this, ptr %this.addr, align 8
  store ptr %status, ptr %status.addr, align 8
  %this1 = load ptr, ptr %this.addr, align 8
  %flags = getelementptr inbounds %"class.icu_75::numparse::impl::ParsedNumber", ptr %this1, i32 0, i32 2
  %0 = load i32, ptr %flags, align 4
  %and = and i32 %0, 64
  %cmp = icmp ne i32 0, %and
  %frombool = zext i1 %cmp to i8
  store i8 %frombool, ptr %sawNaN, align 1
  %flags2 = getelementptr inbounds %"class.icu_75::numparse::impl::ParsedNumber", ptr %this1, i32 0, i32 2
  %1 = load i32, ptr %flags2, align 4
  %and3 = and i32 %1, 128
  %cmp4 = icmp ne i32 0, %and3
  %frombool5 = zext i1 %cmp4 to i8
  store i8 %frombool5, ptr %sawInfinity, align 1
  %2 = load i8, ptr %sawNaN, align 1
  %tobool = trunc i8 %2 to i1
  br i1 %tobool, label %if.then, label %if.end

if.then:                                          ; preds = %entry
  %call = call double @uprv_getNaN_75()
  store double %call, ptr %retval, align 8
  br label %return

if.end:                                           ; preds = %entry
  %3 = load i8, ptr %sawInfinity, align 1
  %tobool6 = trunc i8 %3 to i1
  br i1 %tobool6, label %if.then7, label %if.end12

if.then7:                                         ; preds = %if.end
  %flags8 = getelementptr inbounds %"class.icu_75::numparse::impl::ParsedNumber", ptr %this1, i32 0, i32 2
  %4 = load i32, ptr %flags8, align 4
  %and9 = and i32 %4, 1
  %cmp10 = icmp ne i32 0, %and9
  br i1 %cmp10, label %if.then11, label %if.else

if.then11:                                        ; preds = %if.then7
  store double 0xFFF0000000000000, ptr %retval, align 8
  br label %return

if.else:                                          ; preds = %if.then7
  store double 0x7FF0000000000000, ptr %retval, align 8
  br label %return

if.end12:                                         ; preds = %if.end
  %quantity = getelementptr inbounds %"class.icu_75::numparse::impl::ParsedNumber", ptr %this1, i32 0, i32 0
  %bogus = getelementptr inbounds %"class.icu_75::number::impl::DecimalQuantity", ptr %quantity, i32 0, i32 1
  %5 = load i8, ptr %bogus, align 8
  %tobool13 = trunc i8 %5 to i1
  br i1 %tobool13, label %if.then14, label %if.end15

if.then14:                                        ; preds = %if.end12
  %6 = load ptr, ptr %status.addr, align 8
  store i32 27, ptr %6, align 4
  store double 0.000000e+00, ptr %retval, align 8
  br label %return

if.end15:                                         ; preds = %if.end12
  %quantity16 = getelementptr inbounds %"class.icu_75::numparse::impl::ParsedNumber", ptr %this1, i32 0, i32 0
  %call17 = call noundef zeroext i1 @_ZNK6icu_756number4impl15DecimalQuantity9isZeroishEv(ptr noundef nonnull align 8 dereferenceable(66) %quantity16)
  br i1 %call17, label %land.lhs.true, label %if.end21

land.lhs.true:                                    ; preds = %if.end15
  %quantity18 = getelementptr inbounds %"class.icu_75::numparse::impl::ParsedNumber", ptr %this1, i32 0, i32 0
  %call19 = call noundef zeroext i1 @_ZNK6icu_756number4impl15DecimalQuantity10isNegativeEv(ptr noundef nonnull align 8 dereferenceable(66) %quantity18)
  br i1 %call19, label %if.then20, label %if.end21

if.then20:                                        ; preds = %land.lhs.true
  store double -0.000000e+00, ptr %retval, align 8
  br label %return

if.end21:                                         ; preds = %land.lhs.true, %if.end15
  %quantity22 = getelementptr inbounds %"class.icu_75::numparse::impl::ParsedNumber", ptr %this1, i32 0, i32 0
  %call23 = call noundef zeroext i1 @_ZNK6icu_756number4impl15DecimalQuantity10fitsInLongEb(ptr noundef nonnull align 8 dereferenceable(66) %quantity22, i1 noundef zeroext false)
  br i1 %call23, label %if.then24, label %if.else27

if.then24:                                        ; preds = %if.end21
  %quantity25 = getelementptr inbounds %"class.icu_75::numparse::impl::ParsedNumber", ptr %this1, i32 0, i32 0
  %call26 = call noundef i64 @_ZNK6icu_756number4impl15DecimalQuantity6toLongEb(ptr noundef nonnull align 8 dereferenceable(66) %quantity25, i1 noundef zeroext false)
  %conv = sitofp i64 %call26 to double
  store double %conv, ptr %retval, align 8
  br label %return

if.else27:                                        ; preds = %if.end21
  %quantity28 = getelementptr inbounds %"class.icu_75::numparse::impl::ParsedNumber", ptr %this1, i32 0, i32 0
  %call29 = call noundef double @_ZNK6icu_756number4impl15DecimalQuantity8toDoubleEv(ptr noundef nonnull align 8 dereferenceable(66) %quantity28)
  store double %call29, ptr %retval, align 8
  br label %return

return:                                           ; preds = %if.else27, %if.then24, %if.then20, %if.then14, %if.else, %if.then11, %if.then
  %7 = load double, ptr %retval, align 8
  ret double %7
}