; Function Attrs: mustprogress uwtable
define noundef double @_ZNK6icu_758numparse4impl12ParsedNumber9getDoubleER10UErrorCode(ptr noundef nonnull align 8 dereferenceable(216) %this, ptr nocapture noundef nonnull writeonly align 4 dereferenceable(4) %status) local_unnamed_addr #0 align 2 {
entry:
  %flags = getelementptr inbounds i8, ptr %this, i64 76
  %0 = load i32, ptr %flags, align 4
  %and = and i32 %0, 64
  %cmp.not = icmp eq i32 %and, 0
  br i1 %cmp.not, label %if.end, label %if.then

if.then:                                          ; preds = %entry
  %call = tail call double @uprv_getNaN_75()
  br label %return

if.end:                                           ; preds = %entry
  %and3 = and i32 %0, 128
  %cmp4.not = icmp eq i32 %and3, 0
  br i1 %cmp4.not, label %if.end12, label %if.then7

if.then7:                                         ; preds = %if.end
  %and9 = and i32 %0, 1
  %cmp10.not = icmp eq i32 %and9, 0
  %. = select i1 %cmp10.not, double 0x7FF0000000000000, double 0xFFF0000000000000
  br label %return

if.end12:                                         ; preds = %if.end
  %bogus = getelementptr inbounds i8, ptr %this, i64 8
  %1 = load i8, ptr %bogus, align 8
  %2 = and i8 %1, 1
  %tobool13.not = icmp eq i8 %2, 0
  br i1 %tobool13.not, label %if.end15, label %if.then14

if.then14:                                        ; preds = %if.end12
  store i32 27, ptr %status, align 4
  br label %return

if.end15:                                         ; preds = %if.end12
  %call17 = tail call noundef zeroext i1 @_ZNK6icu_756number4impl15DecimalQuantity9isZeroishEv(ptr noundef nonnull align 8 dereferenceable(66) %this)
  br i1 %call17, label %land.lhs.true, label %if.end21

land.lhs.true:                                    ; preds = %if.end15
  %call19 = tail call noundef zeroext i1 @_ZNK6icu_756number4impl15DecimalQuantity10isNegativeEv(ptr noundef nonnull align 8 dereferenceable(66) %this)
  br i1 %call19, label %return, label %if.end21

if.end21:                                         ; preds = %land.lhs.true, %if.end15
  %call23 = tail call noundef zeroext i1 @_ZNK6icu_756number4impl15DecimalQuantity10fitsInLongEb(ptr noundef nonnull align 8 dereferenceable(66) %this, i1 noundef zeroext false)
  br i1 %call23, label %if.then24, label %if.else27

if.then24:                                        ; preds = %if.end21
  %call26 = tail call noundef i64 @_ZNK6icu_756number4impl15DecimalQuantity6toLongEb(ptr noundef nonnull align 8 dereferenceable(66) %this, i1 noundef zeroext false)
  %conv = sitofp i64 %call26 to double
  br label %return

if.else27:                                        ; preds = %if.end21
  %call29 = tail call noundef double @_ZNK6icu_756number4impl15DecimalQuantity8toDoubleEv(ptr noundef nonnull align 8 dereferenceable(66) %this)
  br label %return

return:                                           ; preds = %land.lhs.true, %if.then7, %if.else27, %if.then24, %if.then14, %if.then
  %retval.0 = phi double [ %call, %if.then ], [ 0.000000e+00, %if.then14 ], [ %conv, %if.then24 ], [ %call29, %if.else27 ], [ %., %if.then7 ], [ -0.000000e+00, %land.lhs.true ]
  ret double %retval.0
}